target datalayout = "e-m:e-p270:32:32-p271:32:32-p272:64:64-i64:64-i128:128-f80:128-n8:16:32:64-S128"
target triple = "x86_64-pc-linux-gnu"

%class.memif_t = type { ptr, ptr }

; Function Attrs: inlinehint mustprogress nounwind uwtable
define linkonce_odr noundef nonnull align 8 dereferenceable(8) ptr @_ZSt3minImERKT_S2_S2_(ptr noundef nonnull align 8 dereferenceable(8) %0, ptr noundef nonnull align 8 dereferenceable(8) %1) #2 comdat {
  %3 = alloca ptr, align 8
  %4 = alloca ptr, align 8
  %5 = alloca ptr, align 8
  store ptr %0, ptr %4, align 8, !tbaa !18
  store ptr %1, ptr %5, align 8, !tbaa !18
  %6 = load ptr, ptr %5, align 8, !tbaa !18
  %7 = load i64, ptr %6, align 8, !tbaa !8
  %8 = load ptr, ptr %4, align 8, !tbaa !18
  %9 = load i64, ptr %8, align 8, !tbaa !8
  %10 = icmp ult i64 %7, %9
  br i1 %10, label %11, label %13

11:                                               ; preds = %2
  %12 = load ptr, ptr %5, align 8, !tbaa !18
  store ptr %12, ptr %3, align 8
  br label %15

13:                                               ; preds = %2
  %14 = load ptr, ptr %4, align 8, !tbaa !18
  store ptr %14, ptr %3, align 8
  br label %15

15:                                               ; preds = %13, %11
  %16 = load ptr, ptr %3, align 8
  ret ptr %16
}

; Function Attrs: mustprogress uwtable
define void @_ZN7memif_t4readEmmPv(ptr noundef nonnull align 8 dereferenceable(16) %0, i64 noundef %1, i64 noundef %2, ptr noundef %3) unnamed_addr #0 align 2 {
  %5 = alloca ptr, align 8
  %6 = alloca i64, align 8
  %7 = alloca i64, align 8
  %8 = alloca ptr, align 8
  %9 = alloca i64, align 8
  %10 = alloca i64, align 8
  %11 = alloca i64, align 8
  %12 = alloca ptr, align 8
  %13 = alloca i64, align 8
  %14 = alloca i64, align 8
  %15 = alloca i64, align 8
  %16 = alloca ptr, align 8
  %17 = alloca i64, align 8
  %18 = alloca i64, align 8
  %19 = alloca i64, align 8
  %20 = alloca i64, align 8
  store ptr %0, ptr %5, align 8, !tbaa !3
  store i64 %1, ptr %6, align 8, !tbaa !8
  store i64 %2, ptr %7, align 8, !tbaa !8
  store ptr %3, ptr %8, align 8, !tbaa !10
  %21 = load ptr, ptr %5, align 8
  call void @llvm.lifetime.start.p0(i64 8, ptr %9) #9
  %22 = getelementptr inbounds nuw %class.memif_t, ptr %21, i32 0, i32 1
  %23 = load ptr, ptr %22, align 8, !tbaa !11
  %24 = load ptr, ptr %23, align 8, !tbaa !14
  %25 = getelementptr inbounds ptr, ptr %24, i64 3
  %26 = load ptr, ptr %25, align 8
  %27 = call noundef i64 %26(ptr noundef nonnull align 8 dereferenceable(8) %23)
  store i64 %27, ptr %9, align 8, !tbaa !8
  %28 = load i64, ptr %7, align 8, !tbaa !8
  %29 = icmp ne i64 %28, 0
  br i1 %29, label %30, label %76

30:                                               ; preds = %4
  %31 = load i64, ptr %6, align 8, !tbaa !8
  %32 = load i64, ptr %9, align 8, !tbaa !8
  %33 = sub i64 %32, 1
  %34 = and i64 %31, %33
  %35 = icmp ne i64 %34, 0
  br i1 %35, label %36, label %76

36:                                               ; preds = %30
  call void @llvm.lifetime.start.p0(i64 8, ptr %10) #9
  call void @llvm.lifetime.start.p0(i64 8, ptr %11) #9
  %37 = load i64, ptr %9, align 8, !tbaa !8
  %38 = load i64, ptr %6, align 8, !tbaa !8
  %39 = load i64, ptr %9, align 8, !tbaa !8
  %40 = sub i64 %39, 1
  %41 = and i64 %38, %40
  %42 = sub i64 %37, %41
  store i64 %42, ptr %11, align 8, !tbaa !8
  %43 = call noundef nonnull align 8 dereferenceable(8) ptr @_ZSt3minImERKT_S2_S2_(ptr noundef nonnull align 8 dereferenceable(8) %7, ptr noundef nonnull align 8 dereferenceable(8) %11)
  %44 = load i64, ptr %43, align 8, !tbaa !8
  call void @llvm.lifetime.end.p0(i64 8, ptr %11) #9
  store i64 %44, ptr %10, align 8, !tbaa !8
  %45 = load i64, ptr %9, align 8, !tbaa !8
  %46 = call ptr @llvm.stacksave.p0()
  store ptr %46, ptr %12, align 8
  %47 = alloca i8, i64 %45, align 16
  store i64 %45, ptr %13, align 8
  %48 = getelementptr inbounds nuw %class.memif_t, ptr %21, i32 0, i32 1
  %49 = load ptr, ptr %48, align 8, !tbaa !11
  %50 = load i64, ptr %6, align 8, !tbaa !8
  %51 = load i64, ptr %9, align 8, !tbaa !8
  %52 = sub i64 %51, 1
  %53 = xor i64 %52, -1
  %54 = and i64 %50, %53
  %55 = load i64, ptr %9, align 8, !tbaa !8
  %56 = load ptr, ptr %49, align 8, !tbaa !14
  %57 = getelementptr inbounds ptr, ptr %56, i64 0
  %58 = load ptr, ptr %57, align 8
  call void %58(ptr noundef nonnull align 8 dereferenceable(8) %49, i64 noundef %54, i64 noundef %55, ptr noundef %47)
  %59 = load ptr, ptr %8, align 8, !tbaa !10
  %60 = load i64, ptr %6, align 8, !tbaa !8
  %61 = load i64, ptr %9, align 8, !tbaa !8
  %62 = sub i64 %61, 1
  %63 = and i64 %60, %62
  %64 = getelementptr inbounds nuw i8, ptr %47, i64 %63
  %65 = load i64, ptr %10, align 8, !tbaa !8
  call void @llvm.memcpy.p0.p0.i64(ptr align 1 %59, ptr align 1 %64, i64 %65, i1 false)
  %66 = load ptr, ptr %8, align 8, !tbaa !10
  %67 = load i64, ptr %10, align 8, !tbaa !8
  %68 = getelementptr inbounds nuw i8, ptr %66, i64 %67
  store ptr %68, ptr %8, align 8, !tbaa !10
  %69 = load i64, ptr %10, align 8, !tbaa !8
  %70 = load i64, ptr %6, align 8, !tbaa !8
  %71 = add i64 %70, %69
  store i64 %71, ptr %6, align 8, !tbaa !8
  %72 = load i64, ptr %10, align 8, !tbaa !8
  %73 = load i64, ptr %7, align 8, !tbaa !8
  %74 = sub i64 %73, %72
  store i64 %74, ptr %7, align 8, !tbaa !8
  %75 = load ptr, ptr %12, align 8
  call void @llvm.stackrestore.p0(ptr %75)
  call void @llvm.lifetime.end.p0(i64 8, ptr %10) #9
  br label %76

76:                                               ; preds = %36, %30, %4
  %77 = load i64, ptr %7, align 8, !tbaa !8
  %78 = load i64, ptr %9, align 8, !tbaa !8
  %79 = sub i64 %78, 1
  %80 = and i64 %77, %79
  %81 = icmp ne i64 %80, 0
  br i1 %81, label %82, label %110

82:                                               ; preds = %76
  call void @llvm.lifetime.start.p0(i64 8, ptr %14) #9
  %83 = load i64, ptr %7, align 8, !tbaa !8
  %84 = load i64, ptr %9, align 8, !tbaa !8
  %85 = sub i64 %84, 1
  %86 = and i64 %83, %85
  store i64 %86, ptr %14, align 8, !tbaa !8
  call void @llvm.lifetime.start.p0(i64 8, ptr %15) #9
  %87 = load i64, ptr %7, align 8, !tbaa !8
  %88 = load i64, ptr %14, align 8, !tbaa !8
  %89 = sub i64 %87, %88
  store i64 %89, ptr %15, align 8, !tbaa !8
  %90 = load i64, ptr %9, align 8, !tbaa !8
  %91 = call ptr @llvm.stacksave.p0()
  store ptr %91, ptr %16, align 8
  %92 = alloca i8, i64 %90, align 16
  store i64 %90, ptr %17, align 8
  %93 = getelementptr inbounds nuw %class.memif_t, ptr %21, i32 0, i32 1
  %94 = load ptr, ptr %93, align 8, !tbaa !11
  %95 = load i64, ptr %6, align 8, !tbaa !8
  %96 = load i64, ptr %15, align 8, !tbaa !8
  %97 = add i64 %95, %96
  %98 = load i64, ptr %9, align 8, !tbaa !8
  %99 = load ptr, ptr %94, align 8, !tbaa !14
  %100 = getelementptr inbounds ptr, ptr %99, i64 0
  %101 = load ptr, ptr %100, align 8
  call void %101(ptr noundef nonnull align 8 dereferenceable(8) %94, i64 noundef %97, i64 noundef %98, ptr noundef %92)
  %102 = load ptr, ptr %8, align 8, !tbaa !10
  %103 = load i64, ptr %15, align 8, !tbaa !8
  %104 = getelementptr inbounds nuw i8, ptr %102, i64 %103
  %105 = load i64, ptr %14, align 8, !tbaa !8
  call void @llvm.memcpy.p0.p0.i64(ptr align 1 %104, ptr align 16 %92, i64 %105, i1 false)
  %106 = load i64, ptr %14, align 8, !tbaa !8
  %107 = load i64, ptr %7, align 8, !tbaa !8
  %108 = sub i64 %107, %106
  store i64 %108, ptr %7, align 8, !tbaa !8
  %109 = load ptr, ptr %16, align 8
  call void @llvm.stackrestore.p0(ptr %109)
  call void @llvm.lifetime.end.p0(i64 8, ptr %15) #9
  call void @llvm.lifetime.end.p0(i64 8, ptr %14) #9
  br label %110

110:                                              ; preds = %82, %76
  call void @llvm.lifetime.start.p0(i64 8, ptr %18) #9
  store i64 0, ptr %18, align 8, !tbaa !8
  br label %111

111:                                              ; preds = %139, %110
  %112 = load i64, ptr %18, align 8, !tbaa !8
  %113 = load i64, ptr %7, align 8, !tbaa !8
  %114 = icmp ult i64 %112, %113
  br i1 %114, label %116, label %115

115:                                              ; preds = %111
  call void @llvm.lifetime.end.p0(i64 8, ptr %18) #9
  br label %148

116:                                              ; preds = %111
  %117 = getelementptr inbounds nuw %class.memif_t, ptr %21, i32 0, i32 1
  %118 = load ptr, ptr %117, align 8, !tbaa !11
  %119 = load i64, ptr %6, align 8, !tbaa !8
  %120 = load i64, ptr %18, align 8, !tbaa !8
  %121 = add i64 %119, %120
  call void @llvm.lifetime.start.p0(i64 8, ptr %19) #9
  %122 = getelementptr inbounds nuw %class.memif_t, ptr %21, i32 0, i32 1
  %123 = load ptr, ptr %122, align 8, !tbaa !11
  %124 = load ptr, ptr %123, align 8, !tbaa !14
  %125 = getelementptr inbounds ptr, ptr %124, i64 4
  %126 = load ptr, ptr %125, align 8
  %127 = call noundef i64 %126(ptr noundef nonnull align 8 dereferenceable(8) %123)
  store i64 %127, ptr %19, align 8, !tbaa !8
  call void @llvm.lifetime.start.p0(i64 8, ptr %20) #9
  %128 = load i64, ptr %7, align 8, !tbaa !8
  %129 = load i64, ptr %18, align 8, !tbaa !8
  %130 = sub i64 %128, %129
  store i64 %130, ptr %20, align 8, !tbaa !8
  %131 = call noundef nonnull align 8 dereferenceable(8) ptr @_ZSt3minImERKT_S2_S2_(ptr noundef nonnull align 8 dereferenceable(8) %19, ptr noundef nonnull align 8 dereferenceable(8) %20)
  %132 = load i64, ptr %131, align 8, !tbaa !8
  %133 = load ptr, ptr %8, align 8, !tbaa !10
  %134 = load i64, ptr %18, align 8, !tbaa !8
  %135 = getelementptr inbounds nuw i8, ptr %133, i64 %134
  %136 = load ptr, ptr %118, align 8, !tbaa !14
  %137 = getelementptr inbounds ptr, ptr %136, i64 0
  %138 = load ptr, ptr %137, align 8
  call void %138(ptr noundef nonnull align 8 dereferenceable(8) %118, i64 noundef %121, i64 noundef %132, ptr noundef %135)
  call void @llvm.lifetime.end.p0(i64 8, ptr %20) #9
  call void @llvm.lifetime.end.p0(i64 8, ptr %19) #9
  br label %139

139:                                              ; preds = %116
  %140 = getelementptr inbounds nuw %class.memif_t, ptr %21, i32 0, i32 1
  %141 = load ptr, ptr %140, align 8, !tbaa !11
  %142 = load ptr, ptr %141, align 8, !tbaa !14
  %143 = getelementptr inbounds ptr, ptr %142, i64 4
  %144 = load ptr, ptr %143, align 8
  %145 = call noundef i64 %144(ptr noundef nonnull align 8 dereferenceable(8) %141)
  %146 = load i64, ptr %18, align 8, !tbaa !8
  %147 = add i64 %146, %145
  store i64 %147, ptr %18, align 8, !tbaa !8
  br label %111, !llvm.loop !16

148:                                              ; preds = %115
  call void @llvm.lifetime.end.p0(i64 8, ptr %9) #9
  ret void
}