; Function Attrs: mustprogress uwtable
define void @_ZN7memif_t4readEmmPv(ptr noundef nonnull readonly align 8 captures(none) dereferenceable(16) %0, i64 noundef %1, i64 noundef %2, ptr noundef %3) unnamed_addr #0 align 2 {
  %5 = getelementptr inbounds nuw i8, ptr %0, i64 8
  %6 = load ptr, ptr %5, align 8, !tbaa !3
  %7 = load ptr, ptr %6, align 8, !tbaa !9
  %8 = getelementptr inbounds nuw i8, ptr %7, i64 24
  %9 = load ptr, ptr %8, align 8
  %10 = tail call noundef i64 %9(ptr noundef nonnull align 8 dereferenceable(8) %6)
  %.not = icmp eq i64 %2, 0
  %.pre = add i64 %10, -1
  br i1 %.not, label %._crit_edge62, label %11

11:                                               ; preds = %4
  %12 = and i64 %.pre, %1
  %.not42 = icmp eq i64 %12, 0
  br i1 %.not42, label %._crit_edge62, label %13

13:                                               ; preds = %11
  %14 = sub i64 %10, %12
  %.sroa.speculated48 = tail call i64 @llvm.umin.i64(i64 %14, i64 %2)
  %15 = tail call ptr @llvm.stacksave.p0()
  %16 = alloca i8, i64 %10, align 16
  %17 = load ptr, ptr %5, align 8, !tbaa !3
  %18 = sub i64 0, %10
  %19 = and i64 %1, %18
  %20 = load ptr, ptr %17, align 8, !tbaa !9
  %21 = load ptr, ptr %20, align 8
  call void %21(ptr noundef nonnull align 8 dereferenceable(8) %17, i64 noundef %19, i64 noundef %10, ptr noundef nonnull %16)
  %22 = getelementptr inbounds nuw i8, ptr %16, i64 %12
  call void @llvm.memcpy.p0.p0.i64(ptr align 1 %3, ptr nonnull align 1 %22, i64 %.sroa.speculated48, i1 false)
  %23 = getelementptr inbounds nuw i8, ptr %3, i64 %.sroa.speculated48
  %24 = add i64 %.sroa.speculated48, %1
  %25 = sub i64 %2, %.sroa.speculated48
  call void @llvm.stackrestore.p0(ptr %15)
  br label %._crit_edge62

._crit_edge62:                                    ; preds = %4, %13, %11
  %.059 = phi i64 [ %25, %13 ], [ %2, %11 ], [ 0, %4 ]
  %.039 = phi ptr [ %23, %13 ], [ %3, %11 ], [ %3, %4 ]
  %.038 = phi i64 [ %24, %13 ], [ %1, %11 ], [ %1, %4 ]
  %26 = and i64 %.059, %.pre
  %.not43 = icmp eq i64 %26, 0
  br i1 %.not43, label %36, label %27

27:                                               ; preds = %._crit_edge62
  %28 = sub i64 %.059, %26
  %29 = call ptr @llvm.stacksave.p0()
  %30 = alloca i8, i64 %10, align 16
  %31 = load ptr, ptr %5, align 8, !tbaa !3
  %32 = add i64 %.038, %28
  %33 = load ptr, ptr %31, align 8, !tbaa !9
  %34 = load ptr, ptr %33, align 8
  call void %34(ptr noundef nonnull align 8 dereferenceable(8) %31, i64 noundef %32, i64 noundef %10, ptr noundef nonnull %30)
  %35 = getelementptr inbounds nuw i8, ptr %.039, i64 %28
  call void @llvm.memcpy.p0.p0.i64(ptr align 1 %35, ptr nonnull align 16 %30, i64 %26, i1 false)
  call void @llvm.stackrestore.p0(ptr %29)
  br label %36

36:                                               ; preds = %27, %._crit_edge62
  %.1 = phi i64 [ %.059, %._crit_edge62 ], [ %28, %27 ]
  %.not61 = icmp eq i64 %.1, 0
  br i1 %.not61, label %._crit_edge, label %.lr.ph

._crit_edge:                                      ; preds = %.lr.ph, %36
  ret void

.lr.ph:                                           ; preds = %36, %.lr.ph
  %.060 = phi i64 [ %52, %.lr.ph ], [ 0, %36 ]
  %37 = load ptr, ptr %5, align 8, !tbaa !3
  %38 = add i64 %.060, %.038
  %39 = load ptr, ptr %37, align 8, !tbaa !9
  %40 = getelementptr inbounds nuw i8, ptr %39, i64 32
  %41 = load ptr, ptr %40, align 8
  %42 = call noundef i64 %41(ptr noundef nonnull align 8 dereferenceable(8) %37)
  %43 = sub nuw i64 %.1, %.060
  %.sroa.speculated = call i64 @llvm.umin.i64(i64 %43, i64 %42)
  %44 = getelementptr inbounds nuw i8, ptr %.039, i64 %.060
  %45 = load ptr, ptr %37, align 8, !tbaa !9
  %46 = load ptr, ptr %45, align 8
  call void %46(ptr noundef nonnull align 8 dereferenceable(8) %37, i64 noundef %38, i64 noundef %.sroa.speculated, ptr noundef %44)
  %47 = load ptr, ptr %5, align 8, !tbaa !3
  %48 = load ptr, ptr %47, align 8, !tbaa !9
  %49 = getelementptr inbounds nuw i8, ptr %48, i64 32
  %50 = load ptr, ptr %49, align 8
  %51 = call noundef i64 %50(ptr noundef nonnull align 8 dereferenceable(8) %47)
  %52 = add i64 %51, %.060
  %53 = icmp ult i64 %52, %.1
  br i1 %53, label %.lr.ph, label %._crit_edge, !llvm.loop !11
}